(dp0
S'show_imports'
p1
I0
sS'prj_name'
p2
S''
p3
sS'docformat'
p4
S'restructuredtext'
p5
sS'inheritance'
p6
S'grouped'
p7
sS'help'
p8
NsS'modules'
p9
(S'/home/jandro/cvs/scopia/rayes/nuevo/doc/collada/collada/base.py'
p10
S'/home/jandro/cvs/scopia/rayes/nuevo/doc/collada/collada/camera.py'
p11
S'/home/jandro/cvs/scopia/rayes/nuevo/doc/collada/collada/collada.py'
p12
S'/home/jandro/cvs/scopia/rayes/nuevo/doc/collada/collada/geometry.py'
p13
S'/home/jandro/cvs/scopia/rayes/nuevo/doc/collada/collada/material.py'
p14
S'/home/jandro/cvs/scopia/rayes/nuevo/doc/collada/collada/primitive.py'
p15
S'/home/jandro/cvs/scopia/rayes/nuevo/doc/collada/collada/scene.py'
p16
S'/home/jandro/cvs/scopia/rayes/nuevo/doc/collada/collada/source.py'
p17
S'/home/jandro/cvs/scopia/rayes/nuevo/doc/collada/collada/triangleset.py'
p18
tp19
sS'private'
p20
I1
sS'prj_url'
p21
NsS'introspect_or_parse'
p22
S'both'
p23
sS'frames'
p24
I1
sS'css'
p25
S'default'
p26
sS'target'
p27
S'html'
p28
s.